target datalayout = "e-m:e-p270:32:32-p271:32:32-p272:64:64-i64:64-i128:128-f80:128-n8:16:32:64-S128"
target triple = "x86_64-pc-linux-gnu"

%struct.lean_array_object = type { %struct.lean_object, i64, i64, [0 x ptr] }
%struct.lean_object = type { i32, i32 }
%struct.lean_ctor_object = type { %struct.lean_object, [0 x ptr] }

; Function Attrs: inlinehint nounwind uwtable
define internal zeroext i1 @lean_is_st(ptr noundef %0) #0 {
  %2 = alloca ptr, align 8
  store ptr %0, ptr %2, align 8, !tbaa !4
  %3 = load ptr, ptr %2, align 8, !tbaa !4
  %4 = getelementptr inbounds nuw %struct.lean_object, ptr %3, i32 0, i32 0
  %5 = load i32, ptr %4, align 4, !tbaa !15
  %6 = icmp sgt i32 %5, 0
  ret i1 %6
}

; Function Attrs: inlinehint nounwind uwtable
define internal void @lean_inc_ref(ptr noundef %0) #0 {
  %2 = alloca ptr, align 8
  store ptr %0, ptr %2, align 8, !tbaa !4
  %3 = load ptr, ptr %2, align 8, !tbaa !4
  %4 = call zeroext i1 @lean_is_st(ptr noundef %3)
  %5 = zext i1 %4 to i64
  %6 = call i64 @llvm.expect.i64(i64 %5, i64 1)
  %7 = icmp ne i64 %6, 0
  br i1 %7, label %8, label %13

8:                                                ; preds = %1
  %9 = load ptr, ptr %2, align 8, !tbaa !4
  %10 = getelementptr inbounds nuw %struct.lean_object, ptr %9, i32 0, i32 0
  %11 = load i32, ptr %10, align 4, !tbaa !15
  %12 = add i32 %11, 1
  store i32 %12, ptr %10, align 4, !tbaa !15
  br label %21

13:                                               ; preds = %1
  %14 = load ptr, ptr %2, align 8, !tbaa !4
  %15 = getelementptr inbounds nuw %struct.lean_object, ptr %14, i32 0, i32 0
  %16 = load i32, ptr %15, align 4, !tbaa !15
  %17 = icmp ne i32 %16, 0
  br i1 %17, label %18, label %20

18:                                               ; preds = %13
  %19 = load ptr, ptr %2, align 8, !tbaa !4
  call void @lean_inc_ref_cold(ptr noundef %19)
  br label %20

20:                                               ; preds = %18, %13
  br label %21

21:                                               ; preds = %20, %8
  ret void
}

; Function Attrs: inlinehint nounwind uwtable
define internal ptr @lean_to_array(ptr noundef %0) #0 {
  %2 = alloca ptr, align 8
  store ptr %0, ptr %2, align 8, !tbaa !4
  %3 = load ptr, ptr %2, align 8, !tbaa !4
  ret ptr %3
}

; Function Attrs: inlinehint nounwind uwtable
define internal ptr @lean_to_ctor(ptr noundef %0) #0 {
  %2 = alloca ptr, align 8
  store ptr %0, ptr %2, align 8, !tbaa !4
  %3 = load ptr, ptr %2, align 8, !tbaa !4
  ret ptr %3
}

; Function Attrs: alwaysinline nounwind uwtable
define internal void @lean_inc(ptr noundef %0) #1 {
  %2 = alloca ptr, align 8
  store ptr %0, ptr %2, align 8, !tbaa !4
  %3 = load ptr, ptr %2, align 8, !tbaa !4
  %4 = call zeroext i1 @lean_is_scalar(ptr noundef %3)
  br i1 %4, label %7, label %5

5:                                                ; preds = %1
  %6 = load ptr, ptr %2, align 8, !tbaa !4
  call void @lean_inc_ref(ptr noundef %6)
  br label %7

7:                                                ; preds = %5, %1
  ret void
}

; Function Attrs: inlinehint nounwind uwtable
define internal ptr @lean_array_get_core(ptr noundef %0, i64 noundef %1) #0 {
  %3 = alloca ptr, align 8
  %4 = alloca i64, align 8
  store ptr %0, ptr %3, align 8, !tbaa !4
  store i64 %1, ptr %4, align 8, !tbaa !8
  %5 = load ptr, ptr %3, align 8, !tbaa !4
  %6 = call ptr @lean_to_array(ptr noundef %5)
  %7 = getelementptr inbounds nuw %struct.lean_array_object, ptr %6, i32 0, i32 3
  %8 = load i64, ptr %4, align 8, !tbaa !8
  %9 = getelementptr inbounds nuw [0 x ptr], ptr %7, i64 0, i64 %8
  %10 = load ptr, ptr %9, align 8, !tbaa !4
  ret ptr %10
}

; Function Attrs: inlinehint nounwind uwtable
define internal ptr @lean_ctor_obj_cptr(ptr noundef %0) #0 {
  %2 = alloca ptr, align 8
  store ptr %0, ptr %2, align 8, !tbaa !4
  %3 = load ptr, ptr %2, align 8, !tbaa !4
  %4 = call ptr @lean_to_ctor(ptr noundef %3)
  %5 = getelementptr inbounds nuw %struct.lean_ctor_object, ptr %4, i32 0, i32 1
  %6 = getelementptr inbounds [0 x ptr], ptr %5, i64 0, i64 0
  ret ptr %6
}

; Function Attrs: inlinehint nounwind uwtable
define internal i64 @lean_usize_add(i64 noundef %0, i64 noundef %1) #0 {
  %3 = alloca i64, align 8
  %4 = alloca i64, align 8
  store i64 %0, ptr %3, align 8, !tbaa !8
  store i64 %1, ptr %4, align 8, !tbaa !8
  %5 = load i64, ptr %3, align 8, !tbaa !8
  %6 = load i64, ptr %4, align 8, !tbaa !8
  %7 = add i64 %5, %6
  ret i64 %7
}

; Function Attrs: inlinehint nounwind uwtable
define internal ptr @lean_array_uget(ptr noundef %0, i64 noundef %1) #0 {
  %3 = alloca ptr, align 8
  %4 = alloca i64, align 8
  %5 = alloca ptr, align 8
  store ptr %0, ptr %3, align 8, !tbaa !4
  store i64 %1, ptr %4, align 8, !tbaa !8
  call void @llvm.lifetime.start.p0(i64 8, ptr %5) #8
  %6 = load ptr, ptr %3, align 8, !tbaa !4
  %7 = load i64, ptr %4, align 8, !tbaa !8
  %8 = call ptr @lean_array_get_core(ptr noundef %6, i64 noundef %7)
  store ptr %8, ptr %5, align 8, !tbaa !4
  %9 = load ptr, ptr %5, align 8, !tbaa !4
  call void @lean_inc(ptr noundef %9)
  %10 = load ptr, ptr %5, align 8, !tbaa !4
  call void @llvm.lifetime.end.p0(i64 8, ptr %5) #8
  ret ptr %10
}

; Function Attrs: inlinehint nounwind uwtable
define internal zeroext i8 @lean_usize_dec_eq(i64 noundef %0, i64 noundef %1) #0 {
  %3 = alloca i64, align 8
  %4 = alloca i64, align 8
  store i64 %0, ptr %3, align 8, !tbaa !8
  store i64 %1, ptr %4, align 8, !tbaa !8
  %5 = load i64, ptr %3, align 8, !tbaa !8
  %6 = load i64, ptr %4, align 8, !tbaa !8
  %7 = icmp eq i64 %5, %6
  %8 = zext i1 %7 to i32
  %9 = trunc i32 %8 to i8
  ret i8 %9
}

; Function Attrs: alwaysinline nounwind uwtable
define internal void @lean_dec_ref(ptr noundef %0) #1 {
  %2 = alloca ptr, align 8
  store ptr %0, ptr %2, align 8, !tbaa !4
  %3 = load ptr, ptr %2, align 8, !tbaa !4
  %4 = getelementptr inbounds nuw %struct.lean_object, ptr %3, i32 0, i32 0
  %5 = load i32, ptr %4, align 4, !tbaa !15
  %6 = icmp sgt i32 %5, 1
  %7 = zext i1 %6 to i32
  %8 = sext i32 %7 to i64
  %9 = call i64 @llvm.expect.i64(i64 %8, i64 1)
  %10 = icmp ne i64 %9, 0
  br i1 %10, label %11, label %16

11:                                               ; preds = %1
  %12 = load ptr, ptr %2, align 8, !tbaa !4
  %13 = getelementptr inbounds nuw %struct.lean_object, ptr %12, i32 0, i32 0
  %14 = load i32, ptr %13, align 4, !tbaa !15
  %15 = add i32 %14, -1
  store i32 %15, ptr %13, align 4, !tbaa !15
  br label %24

16:                                               ; preds = %1
  %17 = load ptr, ptr %2, align 8, !tbaa !4
  %18 = getelementptr inbounds nuw %struct.lean_object, ptr %17, i32 0, i32 0
  %19 = load i32, ptr %18, align 4, !tbaa !15
  %20 = icmp ne i32 %19, 0
  br i1 %20, label %21, label %23

21:                                               ; preds = %16
  %22 = load ptr, ptr %2, align 8, !tbaa !4
  call void @lean_dec_ref_cold(ptr noundef %22)
  br label %23

23:                                               ; preds = %21, %16
  br label %24

24:                                               ; preds = %23, %11
  ret void
}

; Function Attrs: alwaysinline nounwind uwtable
define internal zeroext i1 @lean_is_scalar(ptr noundef %0) #1 {
  %2 = alloca ptr, align 8
  store ptr %0, ptr %2, align 8, !tbaa !4
  %3 = load ptr, ptr %2, align 8, !tbaa !4
  %4 = ptrtoint ptr %3 to i64
  %5 = and i64 %4, 1
  %6 = icmp eq i64 %5, 1
  ret i1 %6
}

; Function Attrs: inlinehint nounwind uwtable
define internal i64 @lean_ctor_get_usize(ptr noundef %0, i32 noundef %1) #0 {
  %3 = alloca ptr, align 8
  %4 = alloca i32, align 4
  store ptr %0, ptr %3, align 8, !tbaa !4
  store i32 %1, ptr %4, align 4, !tbaa !13
  %5 = load ptr, ptr %3, align 8, !tbaa !4
  %6 = call ptr @lean_ctor_obj_cptr(ptr noundef %5)
  %7 = load i32, ptr %4, align 4, !tbaa !13
  %8 = zext i32 %7 to i64
  %9 = getelementptr inbounds nuw ptr, ptr %6, i64 %8
  %10 = load i64, ptr %9, align 8, !tbaa !8
  ret i64 %10
}

; Function Attrs: inlinehint nounwind uwtable
define internal ptr @lean_box(i64 noundef %0) #0 {
  %2 = alloca i64, align 8
  store i64 %0, ptr %2, align 8, !tbaa !8
  %3 = load i64, ptr %2, align 8, !tbaa !8
  %4 = shl i64 %3, 1
  %5 = or i64 %4, 1
  %6 = inttoptr i64 %5 to ptr
  ret ptr %6
}

; Function Attrs: nounwind uwtable
define zeroext i8 @l_Array_anyMUnsafe_any___at_Lean_Server_FileWorker_locationLinksOfInfo___spec__10(ptr noundef %0, ptr noundef %1, i64 noundef %2, i64 noundef %3) #2 {
  %5 = alloca i8, align 1
  %6 = alloca ptr, align 8
  %7 = alloca ptr, align 8
  %8 = alloca i64, align 8
  %9 = alloca i64, align 8
  %10 = alloca i8, align 1
  %11 = alloca ptr, align 8
  %12 = alloca i8, align 1
  %13 = alloca i64, align 8
  %14 = alloca i64, align 8
  %15 = alloca i32, align 4
  %16 = alloca i8, align 1
  %17 = alloca i8, align 1
  store ptr %0, ptr %6, align 8, !tbaa !4
  store ptr %1, ptr %7, align 8, !tbaa !4
  store i64 %2, ptr %8, align 8, !tbaa !8
  store i64 %3, ptr %9, align 8, !tbaa !8
  br label %18

18:                                               ; preds = %46, %4
  call void @llvm.lifetime.start.p0(i64 1, ptr %10) #8
  %19 = load i64, ptr %8, align 8, !tbaa !8
  %20 = load i64, ptr %9, align 8, !tbaa !8
  %21 = call zeroext i8 @lean_usize_dec_eq(i64 noundef %19, i64 noundef %20)
  store i8 %21, ptr %10, align 1, !tbaa !10
  %22 = load i8, ptr %10, align 1, !tbaa !10
  %23 = zext i8 %22 to i32
  %24 = icmp eq i32 %23, 0
  br i1 %24, label %25, label %44

25:                                               ; preds = %18
  call void @llvm.lifetime.start.p0(i64 8, ptr %11) #8
  call void @llvm.lifetime.start.p0(i64 1, ptr %12) #8
  %26 = load ptr, ptr %7, align 8, !tbaa !4
  %27 = load i64, ptr %8, align 8, !tbaa !8
  %28 = call ptr @lean_array_uget(ptr noundef %26, i64 noundef %27)
  store ptr %28, ptr %11, align 8, !tbaa !4
  %29 = load ptr, ptr %6, align 8, !tbaa !4
  %30 = load ptr, ptr %11, align 8, !tbaa !4
  %31 = call zeroext i8 @l_Lean_PersistentArray_anyMAux___at_Lean_Server_FileWorker_locationLinksOfInfo___spec__9(ptr noundef %29, ptr noundef %30)
  store i8 %31, ptr %12, align 1, !tbaa !10
  %32 = load ptr, ptr %11, align 8, !tbaa !4
  call void @lean_dec(ptr noundef %32)
  %33 = load i8, ptr %12, align 1, !tbaa !10
  %34 = zext i8 %33 to i32
  %35 = icmp eq i32 %34, 0
  br i1 %35, label %36, label %41

36:                                               ; preds = %25
  call void @llvm.lifetime.start.p0(i64 8, ptr %13) #8
  call void @llvm.lifetime.start.p0(i64 8, ptr %14) #8
  store i64 1, ptr %13, align 8, !tbaa !8
  %37 = load i64, ptr %8, align 8, !tbaa !8
  %38 = load i64, ptr %13, align 8, !tbaa !8
  %39 = call i64 @lean_usize_add(i64 noundef %37, i64 noundef %38)
  store i64 %39, ptr %14, align 8, !tbaa !8
  %40 = load i64, ptr %14, align 8, !tbaa !8
  store i64 %40, ptr %8, align 8, !tbaa !8
  store i32 2, ptr %15, align 4
  call void @llvm.lifetime.end.p0(i64 8, ptr %14) #8
  call void @llvm.lifetime.end.p0(i64 8, ptr %13) #8
  br label %43

41:                                               ; preds = %25
  call void @llvm.lifetime.start.p0(i64 1, ptr %16) #8
  store i8 1, ptr %16, align 1, !tbaa !10
  %42 = load i8, ptr %16, align 1, !tbaa !10
  store i8 %42, ptr %5, align 1
  store i32 1, ptr %15, align 4
  call void @llvm.lifetime.end.p0(i64 1, ptr %16) #8
  br label %43

43:                                               ; preds = %41, %36
  call void @llvm.lifetime.end.p0(i64 1, ptr %12) #8
  call void @llvm.lifetime.end.p0(i64 8, ptr %11) #8
  br label %46

44:                                               ; preds = %18
  call void @llvm.lifetime.start.p0(i64 1, ptr %17) #8
  store i8 0, ptr %17, align 1, !tbaa !10
  %45 = load i8, ptr %17, align 1, !tbaa !10
  store i8 %45, ptr %5, align 1
  store i32 1, ptr %15, align 4
  call void @llvm.lifetime.end.p0(i64 1, ptr %17) #8
  br label %46

46:                                               ; preds = %44, %43
  call void @llvm.lifetime.end.p0(i64 1, ptr %10) #8
  %47 = load i32, ptr %15, align 4
  switch i32 %47, label %50 [
    i32 2, label %18
    i32 1, label %48
  ]

48:                                               ; preds = %46
  %49 = load i8, ptr %5, align 1
  ret i8 %49

50:                                               ; preds = %46
  unreachable
}

; Function Attrs: alwaysinline nounwind uwtable
define internal void @lean_dec(ptr noundef %0) #1 {
  %2 = alloca ptr, align 8
  store ptr %0, ptr %2, align 8, !tbaa !4
  %3 = load ptr, ptr %2, align 8, !tbaa !4
  %4 = call zeroext i1 @lean_is_scalar(ptr noundef %3)
  br i1 %4, label %7, label %5

5:                                                ; preds = %1
  %6 = load ptr, ptr %2, align 8, !tbaa !4
  call void @lean_dec_ref(ptr noundef %6)
  br label %7

7:                                                ; preds = %5, %1
  ret void
}

; Function Attrs: inlinehint nounwind uwtable
define internal i64 @lean_unbox_usize(ptr noundef %0) #0 {
  %2 = alloca ptr, align 8
  store ptr %0, ptr %2, align 8, !tbaa !4
  %3 = load ptr, ptr %2, align 8, !tbaa !4
  %4 = call i64 @lean_ctor_get_usize(ptr noundef %3, i32 noundef 0)
  ret i64 %4
}

; Function Attrs: nounwind uwtable
define ptr @l_Array_anyMUnsafe_any___at_Lean_Server_FileWorker_locationLinksOfInfo___spec__10___boxed(ptr noundef %0, ptr noundef %1, ptr noundef %2, ptr noundef %3) #2 {
  %5 = alloca ptr, align 8
  %6 = alloca ptr, align 8
  %7 = alloca ptr, align 8
  %8 = alloca ptr, align 8
  %9 = alloca i64, align 8
  %10 = alloca i64, align 8
  %11 = alloca i8, align 1
  %12 = alloca ptr, align 8
  store ptr %0, ptr %5, align 8, !tbaa !4
  store ptr %1, ptr %6, align 8, !tbaa !4
  store ptr %2, ptr %7, align 8, !tbaa !4
  store ptr %3, ptr %8, align 8, !tbaa !4
  br label %13

13:                                               ; preds = %4
  call void @llvm.lifetime.start.p0(i64 8, ptr %9) #8
  call void @llvm.lifetime.start.p0(i64 8, ptr %10) #8
  call void @llvm.lifetime.start.p0(i64 1, ptr %11) #8
  call void @llvm.lifetime.start.p0(i64 8, ptr %12) #8
  %14 = load ptr, ptr %7, align 8, !tbaa !4
  %15 = call i64 @lean_unbox_usize(ptr noundef %14)
  store i64 %15, ptr %9, align 8, !tbaa !8
  %16 = load ptr, ptr %7, align 8, !tbaa !4
  call void @lean_dec(ptr noundef %16)
  %17 = load ptr, ptr %8, align 8, !tbaa !4
  %18 = call i64 @lean_unbox_usize(ptr noundef %17)
  store i64 %18, ptr %10, align 8, !tbaa !8
  %19 = load ptr, ptr %8, align 8, !tbaa !4
  call void @lean_dec(ptr noundef %19)
  %20 = load ptr, ptr %5, align 8, !tbaa !4
  %21 = load ptr, ptr %6, align 8, !tbaa !4
  %22 = load i64, ptr %9, align 8, !tbaa !8
  %23 = load i64, ptr %10, align 8, !tbaa !8
  %24 = call zeroext i8 @l_Array_anyMUnsafe_any___at_Lean_Server_FileWorker_locationLinksOfInfo___spec__10(ptr noundef %20, ptr noundef %21, i64 noundef %22, i64 noundef %23)
  store i8 %24, ptr %11, align 1, !tbaa !10
  %25 = load ptr, ptr %6, align 8, !tbaa !4
  call void @lean_dec(ptr noundef %25)
  %26 = load ptr, ptr %5, align 8, !tbaa !4
  call void @lean_dec(ptr noundef %26)
  %27 = load i8, ptr %11, align 1, !tbaa !10
  %28 = zext i8 %27 to i64
  %29 = call ptr @lean_box(i64 noundef %28)
  store ptr %29, ptr %12, align 8, !tbaa !4
  %30 = load ptr, ptr %12, align 8, !tbaa !4
  call void @llvm.lifetime.end.p0(i64 8, ptr %12) #8
  call void @llvm.lifetime.end.p0(i64 1, ptr %11) #8
  call void @llvm.lifetime.end.p0(i64 8, ptr %10) #8
  call void @llvm.lifetime.end.p0(i64 8, ptr %9) #8
  ret ptr %30
}